target datalayout = "e-m:e-p270:32:32-p271:32:32-p272:64:64-i64:64-f80:128-n8:16:32:64-S128"
target triple = "x86_64-pc-linux-gnu"

@.str = private unnamed_addr constant [3 x i8] c"%d\00", align 1
@.str.1 = private unnamed_addr constant [3 x i8] c"%s\00", align 1
@.str.2 = private unnamed_addr constant [3 x i8] c"%c\00", align 1
@.str.3 = private unnamed_addr constant [2 x i8] c"\0A\00", align 1

; Function Attrs: noinline nounwind uwtable
define dso_local void @main() #0 {
  %1 = alloca [10000 x i8], align 16
  %2 = alloca [10000 x i8], align 16
  %3 = alloca [10000 x i8], align 16
  %4 = alloca i32, align 4
  %5 = alloca i32, align 4
  %6 = alloca i32, align 4
  %7 = alloca i32, align 4
  %8 = alloca i32, align 4
  %9 = alloca i32, align 4
  %10 = alloca i32, align 4
  %11 = alloca i32, align 4
  %12 = call i32 (i8*, ...) @__isoc99_scanf(i8* getelementptr inbounds ([3 x i8], [3 x i8]* @.str, i64 0, i64 0), i32* %11)
  store i32 0, i32* %7, align 4
  br label %13

13:                                               ; preds = %207, %0
  %14 = load i32, i32* %7, align 4
  %15 = load i32, i32* %11, align 4
  %16 = icmp slt i32 %14, %15
  br i1 %16, label %17, label %210

17:                                               ; preds = %13
  %18 = getelementptr inbounds [10000 x i8], [10000 x i8]* %1, i64 0, i64 0
  %19 = call i32 (i8*, ...) @__isoc99_scanf(i8* getelementptr inbounds ([3 x i8], [3 x i8]* @.str.1, i64 0, i64 0), i8* %18)
  %20 = getelementptr inbounds [10000 x i8], [10000 x i8]* %2, i64 0, i64 0
  %21 = call i32 (i8*, ...) @__isoc99_scanf(i8* getelementptr inbounds ([3 x i8], [3 x i8]* @.str.1, i64 0, i64 0), i8* %20)
  store i32 1, i32* %6, align 4
  br label %22

22:                                               ; preds = %29, %17
  %23 = load i32, i32* %6, align 4
  %24 = sext i32 %23 to i64
  %25 = getelementptr inbounds [10000 x i8], [10000 x i8]* %1, i64 0, i64 %24
  %26 = load i8, i8* %25, align 1
  %27 = sext i8 %26 to i32
  %28 = icmp ne i32 %27, 0
  br i1 %28, label %29, label %32

29:                                               ; preds = %22
  %30 = load i32, i32* %6, align 4
  %31 = add nsw i32 %30, 1
  store i32 %31, i32* %6, align 4
  br label %22

32:                                               ; preds = %22
  store i32 1, i32* %8, align 4
  br label %33

33:                                               ; preds = %40, %32
  %34 = load i32, i32* %8, align 4
  %35 = sext i32 %34 to i64
  %36 = getelementptr inbounds [10000 x i8], [10000 x i8]* %2, i64 0, i64 %35
  %37 = load i8, i8* %36, align 1
  %38 = sext i8 %37 to i32
  %39 = icmp ne i32 %38, 0
  br i1 %39, label %40, label %43

40:                                               ; preds = %33
  %41 = load i32, i32* %8, align 4
  %42 = add nsw i32 %41, 1
  store i32 %42, i32* %8, align 4
  br label %33

43:                                               ; preds = %33
  %44 = load i32, i32* %6, align 4
  %45 = load i32, i32* %8, align 4
  %46 = sub nsw i32 %44, %45
  store i32 %46, i32* %4, align 4
  %47 = load i32, i32* %8, align 4
  %48 = sub nsw i32 %47, 1
  store i32 %48, i32* %5, align 4
  br label %49

49:                                               ; preds = %62, %43
  %50 = load i32, i32* %5, align 4
  %51 = icmp sge i32 %50, 0
  br i1 %51, label %52, label %65

52:                                               ; preds = %49
  %53 = load i32, i32* %5, align 4
  %54 = sext i32 %53 to i64
  %55 = getelementptr inbounds [10000 x i8], [10000 x i8]* %2, i64 0, i64 %54
  %56 = load i8, i8* %55, align 1
  %57 = load i32, i32* %5, align 4
  %58 = load i32, i32* %4, align 4
  %59 = add nsw i32 %57, %58
  %60 = sext i32 %59 to i64
  %61 = getelementptr inbounds [10000 x i8], [10000 x i8]* %2, i64 0, i64 %60
  store i8 %56, i8* %61, align 1
  br label %62

62:                                               ; preds = %52
  %63 = load i32, i32* %5, align 4
  %64 = add nsw i32 %63, -1
  store i32 %64, i32* %5, align 4
  br label %49

65:                                               ; preds = %49
  store i32 0, i32* %5, align 4
  br label %66

66:                                               ; preds = %76, %65
  %67 = load i32, i32* %5, align 4
  %68 = load i32, i32* %6, align 4
  %69 = load i32, i32* %8, align 4
  %70 = sub nsw i32 %68, %69
  %71 = icmp slt i32 %67, %70
  br i1 %71, label %72, label %79

72:                                               ; preds = %66
  %73 = load i32, i32* %5, align 4
  %74 = sext i32 %73 to i64
  %75 = getelementptr inbounds [10000 x i8], [10000 x i8]* %2, i64 0, i64 %74
  store i8 48, i8* %75, align 1
  br label %76

76:                                               ; preds = %72
  %77 = load i32, i32* %5, align 4
  %78 = add nsw i32 %77, 1
  store i32 %78, i32* %5, align 4
  br label %66

79:                                               ; preds = %66
  %80 = load i32, i32* %6, align 4
  %81 = sub nsw i32 %80, 1
  store i32 %81, i32* %5, align 4
  br label %82

82:                                               ; preds = %169, %79
  %83 = load i32, i32* %5, align 4
  %84 = load i32, i32* %6, align 4
  %85 = load i32, i32* %8, align 4
  %86 = sub nsw i32 %84, %85
  %87 = icmp sge i32 %83, %86
  br i1 %87, label %88, label %172

88:                                               ; preds = %82
  %89 = load i32, i32* %5, align 4
  %90 = sext i32 %89 to i64
  %91 = getelementptr inbounds [10000 x i8], [10000 x i8]* %1, i64 0, i64 %90
  %92 = load i8, i8* %91, align 1
  %93 = sext i8 %92 to i32
  %94 = load i32, i32* %5, align 4
  %95 = sext i32 %94 to i64
  %96 = getelementptr inbounds [10000 x i8], [10000 x i8]* %2, i64 0, i64 %95
  %97 = load i8, i8* %96, align 1
  %98 = sext i8 %97 to i32
  %99 = sub nsw i32 %93, %98
  store i32 %99, i32* %9, align 4
  %100 = load i32, i32* %9, align 4
  %101 = icmp slt i32 %100, 0
  br i1 %101, label %102, label %127

102:                                              ; preds = %88
  %103 = load i32, i32* %5, align 4
  %104 = sext i32 %103 to i64
  %105 = getelementptr inbounds [10000 x i8], [10000 x i8]* %1, i64 0, i64 %104
  %106 = load i8, i8* %105, align 1
  %107 = sext i8 %106 to i32
  %108 = add nsw i32 10, %107
  %109 = load i32, i32* %5, align 4
  %110 = sext i32 %109 to i64
  %111 = getelementptr inbounds [10000 x i8], [10000 x i8]* %2, i64 0, i64 %110
  %112 = load i8, i8* %111, align 1
  %113 = sext i8 %112 to i32
  %114 = sub nsw i32 %108, %113
  store i32 %114, i32* %9, align 4
  %115 = load i32, i32* %5, align 4
  %116 = sub nsw i32 %115, 1
  %117 = sext i32 %116 to i64
  %118 = getelementptr inbounds [10000 x i8], [10000 x i8]* %1, i64 0, i64 %117
  %119 = load i8, i8* %118, align 1
  %120 = sext i8 %119 to i32
  %121 = sub nsw i32 %120, 1
  %122 = trunc i32 %121 to i8
  %123 = load i32, i32* %5, align 4
  %124 = sub nsw i32 %123, 1
  %125 = sext i32 %124 to i64
  %126 = getelementptr inbounds [10000 x i8], [10000 x i8]* %1, i64 0, i64 %125
  store i8 %122, i8* %126, align 1
  br label %127

127:                                              ; preds = %102, %88
  %128 = load i32, i32* %9, align 4
  %129 = add nsw i32 %128, 48
  %130 = trunc i32 %129 to i8
  %131 = load i32, i32* %5, align 4
  %132 = sext i32 %131 to i64
  %133 = getelementptr inbounds [10000 x i8], [10000 x i8]* %3, i64 0, i64 %132
  store i8 %130, i8* %133, align 1
  %134 = load i32, i32* %5, align 4
  %135 = sub nsw i32 %134, 1
  store i32 %135, i32* %10, align 4
  br label %136

136:                                              ; preds = %143, %127
  %137 = load i32, i32* %10, align 4
  %138 = sext i32 %137 to i64
  %139 = getelementptr inbounds [10000 x i8], [10000 x i8]* %1, i64 0, i64 %138
  %140 = load i8, i8* %139, align 1
  %141 = sext i8 %140 to i32
  %142 = icmp slt i32 %141, 48
  br i1 %142, label %143, label %168

143:                                              ; preds = %136
  %144 = load i32, i32* %10, align 4
  %145 = sext i32 %144 to i64
  %146 = getelementptr inbounds [10000 x i8], [10000 x i8]* %1, i64 0, i64 %145
  %147 = load i8, i8* %146, align 1
  %148 = sext i8 %147 to i32
  %149 = add nsw i32 %148, 10
  %150 = trunc i32 %149 to i8
  %151 = load i32, i32* %10, align 4
  %152 = sext i32 %151 to i64
  %153 = getelementptr inbounds [10000 x i8], [10000 x i8]* %1, i64 0, i64 %152
  store i8 %150, i8* %153, align 1
  %154 = load i32, i32* %10, align 4
  %155 = sub nsw i32 %154, 1
  %156 = sext i32 %155 to i64
  %157 = getelementptr inbounds [10000 x i8], [10000 x i8]* %1, i64 0, i64 %156
  %158 = load i8, i8* %157, align 1
  %159 = sext i8 %158 to i32
  %160 = sub nsw i32 %159, 1
  %161 = trunc i32 %160 to i8
  %162 = load i32, i32* %10, align 4
  %163 = sub nsw i32 %162, 1
  %164 = sext i32 %163 to i64
  %165 = getelementptr inbounds [10000 x i8], [10000 x i8]* %1, i64 0, i64 %164
  store i8 %161, i8* %165, align 1
  %166 = load i32, i32* %10, align 4
  %167 = add nsw i32 %166, -1
  store i32 %167, i32* %10, align 4
  br label %136

168:                                              ; preds = %136
  br label %169

169:                                              ; preds = %168
  %170 = load i32, i32* %5, align 4
  %171 = add nsw i32 %170, -1
  store i32 %171, i32* %5, align 4
  br label %82

172:                                              ; preds = %82
  store i32 0, i32* %5, align 4
  br label %173

173:                                              ; preds = %187, %172
  %174 = load i32, i32* %5, align 4
  %175 = load i32, i32* %6, align 4
  %176 = load i32, i32* %8, align 4
  %177 = sub nsw i32 %175, %176
  %178 = icmp slt i32 %174, %177
  br i1 %178, label %179, label %190

179:                                              ; preds = %173
  %180 = load i32, i32* %5, align 4
  %181 = sext i32 %180 to i64
  %182 = getelementptr inbounds [10000 x i8], [10000 x i8]* %1, i64 0, i64 %181
  %183 = load i8, i8* %182, align 1
  %184 = load i32, i32* %5, align 4
  %185 = sext i32 %184 to i64
  %186 = getelementptr inbounds [10000 x i8], [10000 x i8]* %3, i64 0, i64 %185
  store i8 %183, i8* %186, align 1
  br label %187

187:                                              ; preds = %179
  %188 = load i32, i32* %5, align 4
  %189 = add nsw i32 %188, 1
  store i32 %189, i32* %5, align 4
  br label %173

190:                                              ; preds = %173
  store i32 0, i32* %5, align 4
  br label %191

191:                                              ; preds = %202, %190
  %192 = load i32, i32* %5, align 4
  %193 = load i32, i32* %6, align 4
  %194 = icmp slt i32 %192, %193
  br i1 %194, label %195, label %205

195:                                              ; preds = %191
  %196 = load i32, i32* %5, align 4
  %197 = sext i32 %196 to i64
  %198 = getelementptr inbounds [10000 x i8], [10000 x i8]* %3, i64 0, i64 %197
  %199 = load i8, i8* %198, align 1
  %200 = sext i8 %199 to i32
  %201 = call i32 (i8*, ...) @printf(i8* getelementptr inbounds ([3 x i8], [3 x i8]* @.str.2, i64 0, i64 0), i32 %200)
  br label %202

202:                                              ; preds = %195
  %203 = load i32, i32* %5, align 4
  %204 = add nsw i32 %203, 1
  store i32 %204, i32* %5, align 4
  br label %191

205:                                              ; preds = %191
  %206 = call i32 (i8*, ...) @printf(i8* getelementptr inbounds ([2 x i8], [2 x i8]* @.str.3, i64 0, i64 0))
  br label %207

207:                                              ; preds = %205
  %208 = load i32, i32* %7, align 4
  %209 = add nsw i32 %208, 1
  store i32 %209, i32* %7, align 4
  br label %13

210:                                              ; preds = %13
  ret void
}